target datalayout = "e-m:e-p270:32:32-p271:32:32-p272:64:64-i64:64-i128:128-f80:128-n8:16:32:64-S128"
target triple = "x86_64-pc-linux-gnu"

%struct.uv_env_item_s = type { ptr, ptr }

@environ = external global ptr, align 8

; Function Attrs: nounwind uwtable
define dso_local i32 @uv_os_environ(ptr noundef %0, ptr noundef %1) #0 {
  %3 = alloca i32, align 4
  %4 = alloca ptr, align 8
  %5 = alloca ptr, align 8
  %6 = alloca i32, align 4
  %7 = alloca i32, align 4
  %8 = alloca i32, align 4
  %9 = alloca ptr, align 8
  %10 = alloca i32, align 4
  %11 = alloca ptr, align 8
  %12 = alloca ptr, align 8
  store ptr %0, ptr %4, align 8
  store ptr %1, ptr %5, align 8
  call void @llvm.lifetime.start.p0(i64 4, ptr %6) #11
  call void @llvm.lifetime.start.p0(i64 4, ptr %7) #11
  call void @llvm.lifetime.start.p0(i64 4, ptr %8) #11
  call void @llvm.lifetime.start.p0(i64 8, ptr %9) #11
  %13 = load ptr, ptr %4, align 8
  store ptr null, ptr %13, align 8
  %14 = load ptr, ptr %5, align 8
  store i32 0, ptr %14, align 4
  store i32 0, ptr %6, align 4
  br label %15

15:                                               ; preds = %23, %2
  %16 = load ptr, ptr @environ, align 8
  %17 = load i32, ptr %6, align 4
  %18 = sext i32 %17 to i64
  %19 = getelementptr inbounds ptr, ptr %16, i64 %18
  %20 = load ptr, ptr %19, align 8
  %21 = icmp ne ptr %20, null
  br i1 %21, label %22, label %26

22:                                               ; preds = %15
  br label %23

23:                                               ; preds = %22
  %24 = load i32, ptr %6, align 4
  %25 = add nsw i32 %24, 1
  store i32 %25, ptr %6, align 4
  br label %15

26:                                               ; preds = %15
  %27 = load i32, ptr %6, align 4
  %28 = sext i32 %27 to i64
  %29 = call ptr @uv__calloc(i64 noundef %28, i64 noundef 16)
  %30 = load ptr, ptr %4, align 8
  store ptr %29, ptr %30, align 8
  %31 = load ptr, ptr %4, align 8
  %32 = load ptr, ptr %31, align 8
  %33 = icmp eq ptr %32, null
  br i1 %33, label %34, label %35

34:                                               ; preds = %26
  store i32 -12, ptr %3, align 4
  store i32 1, ptr %10, align 4
  br label %112

35:                                               ; preds = %26
  store i32 0, ptr %7, align 4
  store i32 0, ptr %8, align 4
  br label %36

36:                                               ; preds = %84, %35
  %37 = load i32, ptr %7, align 4
  %38 = load i32, ptr %6, align 4
  %39 = icmp slt i32 %37, %38
  br i1 %39, label %40, label %87

40:                                               ; preds = %36
  call void @llvm.lifetime.start.p0(i64 8, ptr %11) #11
  call void @llvm.lifetime.start.p0(i64 8, ptr %12) #11
  %41 = load ptr, ptr @environ, align 8
  %42 = load i32, ptr %7, align 4
  %43 = sext i32 %42 to i64
  %44 = getelementptr inbounds ptr, ptr %41, i64 %43
  %45 = load ptr, ptr %44, align 8
  %46 = icmp eq ptr %45, null
  br i1 %46, label %47, label %48

47:                                               ; preds = %40
  store i32 5, ptr %10, align 4
  br label %81

48:                                               ; preds = %40
  %49 = load ptr, ptr @environ, align 8
  %50 = load i32, ptr %7, align 4
  %51 = sext i32 %50 to i64
  %52 = getelementptr inbounds ptr, ptr %49, i64 %51
  %53 = load ptr, ptr %52, align 8
  %54 = call ptr @uv__strdup(ptr noundef %53)
  store ptr %54, ptr %11, align 8
  %55 = load ptr, ptr %11, align 8
  %56 = icmp eq ptr %55, null
  br i1 %56, label %57, label %58

57:                                               ; preds = %48
  store i32 8, ptr %10, align 4
  br label %81

58:                                               ; preds = %48
  %59 = load ptr, ptr %11, align 8
  %60 = call ptr @strchr(ptr noundef %59, i32 noundef 61) #13
  store ptr %60, ptr %12, align 8
  %61 = load ptr, ptr %12, align 8
  %62 = icmp eq ptr %61, null
  br i1 %62, label %63, label %65

63:                                               ; preds = %58
  %64 = load ptr, ptr %11, align 8
  call void @uv__free(ptr noundef %64)
  store i32 7, ptr %10, align 4
  br label %81

65:                                               ; preds = %58
  %66 = load ptr, ptr %12, align 8
  store i8 0, ptr %66, align 1
  %67 = load ptr, ptr %4, align 8
  %68 = load ptr, ptr %67, align 8
  %69 = load i32, ptr %8, align 4
  %70 = sext i32 %69 to i64
  %71 = getelementptr inbounds %struct.uv_env_item_s, ptr %68, i64 %70
  store ptr %71, ptr %9, align 8
  %72 = load ptr, ptr %11, align 8
  %73 = load ptr, ptr %9, align 8
  %74 = getelementptr inbounds nuw %struct.uv_env_item_s, ptr %73, i32 0, i32 0
  store ptr %72, ptr %74, align 8
  %75 = load ptr, ptr %12, align 8
  %76 = getelementptr inbounds i8, ptr %75, i64 1
  %77 = load ptr, ptr %9, align 8
  %78 = getelementptr inbounds nuw %struct.uv_env_item_s, ptr %77, i32 0, i32 1
  store ptr %76, ptr %78, align 8
  %79 = load i32, ptr %8, align 4
  %80 = add nsw i32 %79, 1
  store i32 %80, ptr %8, align 4
  store i32 0, ptr %10, align 4
  br label %81

81:                                               ; preds = %57, %65, %63, %47
  call void @llvm.lifetime.end.p0(i64 8, ptr %12) #11
  call void @llvm.lifetime.end.p0(i64 8, ptr %11) #11
  %82 = load i32, ptr %10, align 4
  switch i32 %82, label %112 [
    i32 0, label %83
    i32 5, label %87
    i32 7, label %84
    i32 8, label %90
  ]

83:                                               ; preds = %81
  br label %84

84:                                               ; preds = %83, %81
  %85 = load i32, ptr %7, align 4
  %86 = add nsw i32 %85, 1
  store i32 %86, ptr %7, align 4
  br label %36

87:                                               ; preds = %81, %36
  %88 = load i32, ptr %8, align 4
  %89 = load ptr, ptr %5, align 8
  store i32 %88, ptr %89, align 4
  store i32 0, ptr %3, align 4
  store i32 1, ptr %10, align 4
  br label %112

90:                                               ; preds = %81
  store i32 0, ptr %6, align 4
  br label %91

91:                                               ; preds = %104, %90
  %92 = load i32, ptr %6, align 4
  %93 = load i32, ptr %8, align 4
  %94 = icmp slt i32 %92, %93
  br i1 %94, label %95, label %107

95:                                               ; preds = %91
  %96 = load ptr, ptr %4, align 8
  %97 = load ptr, ptr %96, align 8
  %98 = load i32, ptr %8, align 4
  %99 = sext i32 %98 to i64
  %100 = getelementptr inbounds %struct.uv_env_item_s, ptr %97, i64 %99
  store ptr %100, ptr %9, align 8
  %101 = load ptr, ptr %9, align 8
  %102 = getelementptr inbounds nuw %struct.uv_env_item_s, ptr %101, i32 0, i32 0
  %103 = load ptr, ptr %102, align 8
  call void @uv__free(ptr noundef %103)
  br label %104

104:                                              ; preds = %95
  %105 = load i32, ptr %6, align 4
  %106 = add nsw i32 %105, 1
  store i32 %106, ptr %6, align 4
  br label %91

107:                                              ; preds = %91
  %108 = load ptr, ptr %4, align 8
  %109 = load ptr, ptr %108, align 8
  call void @uv__free(ptr noundef %109)
  %110 = load ptr, ptr %4, align 8
  store ptr null, ptr %110, align 8
  %111 = load ptr, ptr %5, align 8
  store i32 0, ptr %111, align 4
  store i32 -12, ptr %3, align 4
  store i32 1, ptr %10, align 4
  br label %112

112:                                              ; preds = %107, %87, %81, %34
  call void @llvm.lifetime.end.p0(i64 8, ptr %9) #11
  call void @llvm.lifetime.end.p0(i64 4, ptr %8) #11
  call void @llvm.lifetime.end.p0(i64 4, ptr %7) #11
  call void @llvm.lifetime.end.p0(i64 4, ptr %6) #11
  %113 = load i32, ptr %3, align 4
  ret i32 %113
}