; Function Attrs: nounwind uwtable
define dso_local range(i32 -12, 1) i32 @uv_os_environ(ptr noundef captures(none) initializes((0, 8)) %0, ptr noundef writeonly captures(none) initializes((0, 4)) %1) local_unnamed_addr #0 {
  store ptr null, ptr %0, align 8
  store i32 0, ptr %1, align 4
  %3 = load ptr, ptr @environ, align 8
  br label %4

4:                                                ; preds = %4, %2
  %indvars.iv64 = phi i32 [ %indvars.iv.next65, %4 ], [ 0, %2 ]
  %indvars.iv = phi i64 [ %indvars.iv.next, %4 ], [ 0, %2 ]
  %5 = getelementptr inbounds nuw ptr, ptr %3, i64 %indvars.iv
  %6 = load ptr, ptr %5, align 8
  %.not = icmp eq ptr %6, null
  %indvars.iv.next = add nuw nsw i64 %indvars.iv, 1
  %indvars.iv.next65 = add nuw i32 %indvars.iv64, 1
  br i1 %.not, label %7, label %4

7:                                                ; preds = %4
  %8 = tail call ptr @uv__calloc(i64 noundef %indvars.iv, i64 noundef 16) #23
  store ptr %8, ptr %0, align 8
  %9 = icmp eq ptr %8, null
  br i1 %9, label %37, label %.preheader50

.preheader50:                                     ; preds = %7
  %.not58 = icmp eq i64 %indvars.iv, 0
  br i1 %.not58, label %.sink.split, label %.lr.ph.preheader

.lr.ph.preheader:                                 ; preds = %.preheader50
  %wide.trip.count = zext i32 %indvars.iv64 to i64
  br label %.lr.ph

.lr.ph:                                           ; preds = %.lr.ph.preheader, %30
  %indvars.iv61 = phi i64 [ 0, %.lr.ph.preheader ], [ %indvars.iv.next62, %30 ]
  %.03853 = phi i32 [ 0, %.lr.ph.preheader ], [ %.2.ph, %30 ]
  %10 = load ptr, ptr @environ, align 8
  %11 = getelementptr inbounds nuw ptr, ptr %10, i64 %indvars.iv61
  %12 = load ptr, ptr %11, align 8
  %13 = icmp eq ptr %12, null
  br i1 %13, label %.sink.split, label %14

14:                                               ; preds = %.lr.ph
  %15 = tail call ptr @uv__strdup(ptr noundef nonnull %12) #23
  %16 = icmp eq ptr %15, null
  br i1 %16, label %.preheader, label %19

.preheader:                                       ; preds = %14
  %17 = icmp sgt i32 %.03853, 0
  br i1 %17, label %.lr.ph57, label %._crit_edge

.lr.ph57:                                         ; preds = %.preheader
  %18 = zext nneg i32 %.03853 to i64
  br label %31

19:                                               ; preds = %14
  %20 = tail call ptr @strchr(ptr noundef nonnull dereferenceable(1) %15, i32 noundef 61) #25
  %21 = icmp eq ptr %20, null
  br i1 %21, label %22, label %23

22:                                               ; preds = %19
  tail call void @uv__free(ptr noundef nonnull %15) #23
  br label %30

23:                                               ; preds = %19
  store i8 0, ptr %20, align 1
  %24 = load ptr, ptr %0, align 8
  %25 = sext i32 %.03853 to i64
  %26 = getelementptr inbounds %struct.uv_env_item_s, ptr %24, i64 %25
  store ptr %15, ptr %26, align 8
  %27 = getelementptr inbounds nuw i8, ptr %20, i64 1
  %28 = getelementptr inbounds nuw i8, ptr %26, i64 8
  store ptr %27, ptr %28, align 8
  %29 = add nsw i32 %.03853, 1
  br label %30

30:                                               ; preds = %22, %23
  %.2.ph = phi i32 [ %29, %23 ], [ %.03853, %22 ]
  %indvars.iv.next62 = add nuw nsw i64 %indvars.iv61, 1
  %exitcond.not = icmp eq i64 %indvars.iv.next62, %wide.trip.count
  br i1 %exitcond.not, label %.sink.split, label %.lr.ph

31:                                               ; preds = %.lr.ph57, %31
  %.156 = phi i32 [ 0, %.lr.ph57 ], [ %35, %31 ]
  %32 = load ptr, ptr %0, align 8
  %33 = getelementptr inbounds nuw %struct.uv_env_item_s, ptr %32, i64 %18
  %34 = load ptr, ptr %33, align 8
  tail call void @uv__free(ptr noundef %34) #23
  %35 = add nuw nsw i32 %.156, 1
  %exitcond67.not = icmp eq i32 %35, %.03853
  br i1 %exitcond67.not, label %._crit_edge, label %31

._crit_edge:                                      ; preds = %31, %.preheader
  %36 = load ptr, ptr %0, align 8
  tail call void @uv__free(ptr noundef %36) #23
  store ptr null, ptr %0, align 8
  br label %.sink.split

.sink.split:                                      ; preds = %.lr.ph, %30, %.preheader50, %._crit_edge
  %.sink = phi i32 [ 0, %._crit_edge ], [ 0, %.preheader50 ], [ %.03853, %.lr.ph ], [ %.2.ph, %30 ]
  %.0.ph = phi i32 [ -12, %._crit_edge ], [ 0, %.preheader50 ], [ 0, %30 ], [ 0, %.lr.ph ]
  store i32 %.sink, ptr %1, align 4
  br label %37

37:                                               ; preds = %.sink.split, %7
  %.0 = phi i32 [ -12, %7 ], [ %.0.ph, %.sink.split ]
  ret i32 %.0
}